target datalayout = "e-m:e-p270:32:32-p271:32:32-p272:64:64-i64:64-i128:128-f80:128-n8:16:32:64-S128"
target triple = "x86_64-pc-linux-gnu"

%struct.SSL_TEST_SERVER_CONF = type { i32, ptr, ptr, i32, i32, ptr, ptr, i32, ptr }

@.str = private unnamed_addr constant [39 x i8] c"../openssl/test/helpers/ssl_test_ctx.c\00", align 1
@.str.100 = private unnamed_addr constant [29 x i8] c"ctx->session_ticket_app_data\00", align 1

; Function Attrs: nounwind uwtable
define internal i32 @parse_server_session_ticket_app_data(ptr noundef %0, ptr noundef %1) #0 {
  %3 = alloca ptr, align 8
  %4 = alloca ptr, align 8
  store ptr %0, ptr %3, align 8, !tbaa !8
  store ptr %1, ptr %4, align 8, !tbaa !38
  %5 = load ptr, ptr %3, align 8, !tbaa !8
  %6 = getelementptr inbounds nuw %struct.SSL_TEST_SERVER_CONF, ptr %5, i32 0, i32 8
  %7 = load ptr, ptr %6, align 8, !tbaa !86
  call void @CRYPTO_free(ptr noundef %7, ptr noundef @.str, i32 noundef 367)
  %8 = load ptr, ptr %4, align 8, !tbaa !38
  %9 = call noalias ptr @CRYPTO_strdup(ptr noundef %8, ptr noundef @.str, i32 noundef 367)
  %10 = load ptr, ptr %3, align 8, !tbaa !8
  %11 = getelementptr inbounds nuw %struct.SSL_TEST_SERVER_CONF, ptr %10, i32 0, i32 8
  store ptr %9, ptr %11, align 8, !tbaa !86
  %12 = load ptr, ptr %3, align 8, !tbaa !8
  %13 = getelementptr inbounds nuw %struct.SSL_TEST_SERVER_CONF, ptr %12, i32 0, i32 8
  %14 = load ptr, ptr %13, align 8, !tbaa !86
  %15 = call i32 @test_ptr(ptr noundef @.str, i32 noundef 367, ptr noundef @.str.100, ptr noundef %14)
  ret i32 %15
}